target datalayout = "e-m:e-p270:32:32-p271:32:32-p272:64:64-i64:64-i128:128-f80:128-n8:16:32:64-S128"
target triple = "x86_64-pc-linux-gnu"

; Function Attrs: nounwind uwtable
define ptr @Abc_NtkSpecialMuxTree_rec(ptr noundef %0, ptr noundef %1, i32 noundef %2, ptr noundef %3, i32 noundef %4) #0 {
  %6 = alloca ptr, align 8
  %7 = alloca ptr, align 8
  %8 = alloca ptr, align 8
  %9 = alloca i32, align 4
  %10 = alloca ptr, align 8
  %11 = alloca i32, align 4
  %12 = alloca ptr, align 8
  %13 = alloca ptr, align 8
  %14 = alloca i32, align 4
  store ptr %0, ptr %7, align 8, !tbaa !3
  store ptr %1, ptr %8, align 8, !tbaa !113
  store i32 %2, ptr %9, align 4, !tbaa !8
  store ptr %3, ptr %10, align 8, !tbaa !113
  store i32 %4, ptr %11, align 4, !tbaa !8
  call void @llvm.lifetime.start.p0(i64 8, ptr %12) #9
  call void @llvm.lifetime.start.p0(i64 8, ptr %13) #9
  %15 = load i32, ptr %9, align 4, !tbaa !8
  %16 = icmp eq i32 %15, 0
  br i1 %16, label %17, label %23

17:                                               ; preds = %5
  %18 = load ptr, ptr %10, align 8, !tbaa !113
  %19 = load i32, ptr %11, align 4, !tbaa !8
  %20 = sext i32 %19 to i64
  %21 = getelementptr inbounds ptr, ptr %18, i64 %20
  %22 = load ptr, ptr %21, align 8, !tbaa !28
  store ptr %22, ptr %6, align 8
  store i32 1, ptr %14, align 4
  br label %52

23:                                               ; preds = %5
  %24 = load ptr, ptr %7, align 8, !tbaa !3
  %25 = load ptr, ptr %8, align 8, !tbaa !113
  %26 = load i32, ptr %9, align 4, !tbaa !8
  %27 = sub nsw i32 %26, 1
  %28 = load ptr, ptr %10, align 8, !tbaa !113
  %29 = load i32, ptr %11, align 4, !tbaa !8
  %30 = call ptr @Abc_NtkSpecialMuxTree_rec(ptr noundef %24, ptr noundef %25, i32 noundef %27, ptr noundef %28, i32 noundef %29)
  store ptr %30, ptr %12, align 8, !tbaa !28
  %31 = load ptr, ptr %7, align 8, !tbaa !3
  %32 = load ptr, ptr %8, align 8, !tbaa !113
  %33 = load i32, ptr %9, align 4, !tbaa !8
  %34 = sub nsw i32 %33, 1
  %35 = load ptr, ptr %10, align 8, !tbaa !113
  %36 = load i32, ptr %11, align 4, !tbaa !8
  %37 = load i32, ptr %9, align 4, !tbaa !8
  %38 = sub nsw i32 %37, 1
  %39 = shl i32 1, %38
  %40 = add nsw i32 %36, %39
  %41 = call ptr @Abc_NtkSpecialMuxTree_rec(ptr noundef %31, ptr noundef %32, i32 noundef %34, ptr noundef %35, i32 noundef %40)
  store ptr %41, ptr %13, align 8, !tbaa !28
  %42 = load ptr, ptr %7, align 8, !tbaa !3
  %43 = load ptr, ptr %8, align 8, !tbaa !113
  %44 = load i32, ptr %9, align 4, !tbaa !8
  %45 = sub nsw i32 %44, 1
  %46 = sext i32 %45 to i64
  %47 = getelementptr inbounds ptr, ptr %43, i64 %46
  %48 = load ptr, ptr %47, align 8, !tbaa !28
  %49 = load ptr, ptr %13, align 8, !tbaa !28
  %50 = load ptr, ptr %12, align 8, !tbaa !28
  %51 = call ptr @Abc_NtkCreateNodeMux(ptr noundef %42, ptr noundef %48, ptr noundef %49, ptr noundef %50)
  store ptr %51, ptr %6, align 8
  store i32 1, ptr %14, align 4
  br label %52

52:                                               ; preds = %23, %17
  call void @llvm.lifetime.end.p0(i64 8, ptr %13) #9
  call void @llvm.lifetime.end.p0(i64 8, ptr %12) #9
  %53 = load ptr, ptr %6, align 8
  ret ptr %53
}