; Function Attrs: nounwind uwtable
define ptr @Abc_NtkSpecialMuxTree_rec(ptr noundef %0, ptr noundef %1, i32 noundef %2, ptr noundef %3, i32 noundef %4) local_unnamed_addr #0 {
  %6 = icmp eq i32 %2, 0
  br i1 %6, label %common.ret, label %10

common.ret:                                       ; preds = %5
  %7 = sext i32 %4 to i64
  %8 = getelementptr inbounds ptr, ptr %3, i64 %7
  %9 = load ptr, ptr %8, align 8, !tbaa !50
  br label %common.ret20

common.ret20:                                     ; preds = %10, %common.ret
  %common.ret20.op = phi ptr [ %9, %common.ret ], [ %19, %10 ]
  ret ptr %common.ret20.op

10:                                               ; preds = %5
  %11 = add nsw i32 %2, -1
  %12 = tail call ptr @Abc_NtkSpecialMuxTree_rec(ptr noundef %0, ptr noundef %1, i32 noundef %11, ptr noundef %3, i32 noundef %4)
  %13 = shl nuw i32 1, %11
  %14 = add nsw i32 %4, %13
  %15 = tail call ptr @Abc_NtkSpecialMuxTree_rec(ptr noundef %0, ptr noundef %1, i32 noundef %11, ptr noundef %3, i32 noundef %14)
  %16 = sext i32 %11 to i64
  %17 = getelementptr inbounds ptr, ptr %1, i64 %16
  %18 = load ptr, ptr %17, align 8, !tbaa !50
  %19 = tail call ptr @Abc_NtkCreateNodeMux(ptr noundef %0, ptr noundef %18, ptr noundef %15, ptr noundef %12) #16
  br label %common.ret20
}